; Function Attrs: mustprogress uwtable
define noundef zeroext i1 @_ZN3g2o16OptimizableGraph25removePostIterationActionEPNS_16HyperGraphActionE(ptr noundef nonnull readonly align 8 captures(none) dereferenceable(288) %0, ptr noundef %1) local_unnamed_addr #4 align 2 {
  %3 = alloca ptr, align 8
  store ptr %1, ptr %3, align 8, !tbaa !210
  %4 = getelementptr inbounds nuw i8, ptr %0, i64 168
  %5 = load ptr, ptr %4, align 8, !tbaa !130
  %6 = getelementptr inbounds nuw i8, ptr %5, i64 48
  %7 = call noundef i64 @_ZNSt8_Rb_treeIPN3g2o16HyperGraphActionES2_St9_IdentityIS2_ESt4lessIS2_ESaIS2_EE5eraseERKS2_(ptr noundef nonnull align 8 dereferenceable(48) %6, ptr noundef nonnull align 8 dereferenceable(8) %3)
  %8 = icmp ne i64 %7, 0
  ret i1 %8
}